target datalayout = "e-m:e-p270:32:32-p271:32:32-p272:64:64-i64:64-i128:128-f80:128-n8:16:32:64-S128"
target triple = "x86_64-unknown-linux-gnu"

; Function Attrs: mustprogress uwtable
define hidden noundef zeroext i1 @_ZN4cvc58internal6theory24TheoryEngineModelBuilder17processBuildModelEPNS1_11TheoryModelE(ptr noundef nonnull align 8 dereferenceable(120) %this, ptr noundef %m) unnamed_addr #4 align 2 {
entry:
  %this.addr = alloca ptr, align 8
  %m.addr = alloca ptr, align 8
  store ptr %this, ptr %this.addr, align 8
  store ptr %m, ptr %m.addr, align 8
  %this1 = load ptr, ptr %this.addr, align 8
  %0 = load ptr, ptr %m.addr, align 8
  %call = call noundef zeroext i1 @_ZNK4cvc58internal6theory11TheoryModel24areFunctionValuesEnabledEv(ptr noundef nonnull align 8 dereferenceable(904) %0)
  br i1 %call, label %if.then, label %if.end

if.then:                                          ; preds = %entry
  %1 = load ptr, ptr %m.addr, align 8
  call void @_ZN4cvc58internal6theory24TheoryEngineModelBuilder15assignFunctionsEPNS1_11TheoryModelE(ptr noundef nonnull align 8 dereferenceable(120) %this1, ptr noundef %1)
  br label %if.end

if.end:                                           ; preds = %if.then, %entry
  ret i1 true
}