; Function Attrs: mustprogress uwtable
define hidden noundef zeroext i1 @_ZN4cvc58internal6theory24TheoryEngineModelBuilder17processBuildModelEPNS1_11TheoryModelE(ptr noundef nonnull align 8 dereferenceable(120) %this, ptr noundef nonnull %m) unnamed_addr #3 align 2 {
entry:
  %call = tail call noundef zeroext i1 @_ZNK4cvc58internal6theory11TheoryModel24areFunctionValuesEnabledEv(ptr noundef nonnull align 8 dereferenceable(904) %m)
  br i1 %call, label %if.then, label %if.end

if.then:                                          ; preds = %entry
  tail call void @_ZN4cvc58internal6theory24TheoryEngineModelBuilder15assignFunctionsEPNS1_11TheoryModelE(ptr noundef nonnull align 8 dereferenceable(120) %this, ptr noundef nonnull %m)
  br label %if.end

if.end:                                           ; preds = %if.then, %entry
  ret i1 true
}